target datalayout = "e-m:e-p270:32:32-p271:32:32-p272:64:64-i64:64-i128:128-f80:128-n8:16:32:64-S128"
target triple = "x86_64-unknown-linux-gnu"

%"class.llvh::DenseMap.0" = type <{ ptr, i32, i32, i32, [4 x i8] }>
%"class.llvh::SmallVectorBase" = type { ptr, i32, i32 }
%"class.hermes::hbc::HBCISel" = type { ptr, ptr, ptr, ptr, ptr, %"class.llvh::DenseMap.22", %"class.llvh::DenseSet", %"class.llvh::SmallVector.28", %"class.llvh::DenseMap.0", %"class.llvh::DenseMap.34", ptr, %"class.llvh::DenseMap.37", %"class.hermes::Identifier", i8, i8, [6 x i8], %"class.llvh::DenseMap.40", %"class.llvh::DenseMap.40", ptr, ptr }
%"class.llvh::DenseMap.22" = type <{ ptr, i32, i32, i32, [4 x i8] }>
%"class.llvh::DenseSet" = type { %"class.llvh::detail::DenseSetImpl" }
%"class.llvh::detail::DenseSetImpl" = type { %"class.llvh::DenseMap.25" }
%"class.llvh::DenseMap.25" = type <{ ptr, i32, i32, i32, [4 x i8] }>
%"class.llvh::SmallVector.28" = type { %"class.llvh::SmallVectorImpl.29", %"struct.llvh::SmallVectorStorage.32" }
%"class.llvh::SmallVectorImpl.29" = type { %"class.llvh::SmallVectorTemplateBase.30" }
%"class.llvh::SmallVectorTemplateBase.30" = type { %"class.llvh::SmallVectorTemplateCommon.31" }
%"class.llvh::SmallVectorTemplateCommon.31" = type { %"class.llvh::SmallVectorBase" }
%"struct.llvh::SmallVectorStorage.32" = type { [8 x %"struct.llvh::AlignedCharArrayUnion.33"] }
%"struct.llvh::AlignedCharArrayUnion.33" = type { %"struct.llvh::AlignedCharArray.21" }
%"struct.llvh::AlignedCharArray.21" = type { [16 x i8] }
%"class.llvh::DenseMap.34" = type <{ ptr, i32, i32, i32, [4 x i8] }>
%"class.llvh::DenseMap.37" = type <{ ptr, i32, i32, i32, [4 x i8] }>
%"class.hermes::Identifier" = type { ptr }
%"class.llvh::DenseMap.40" = type <{ ptr, i32, i32, i32, [4 x i8] }>
%"struct.hermes::hbc::HBCISel::Relocation" = type { i32, i32, ptr }

; Function Attrs: mustprogress nounwind uwtable
define linkonce_odr hidden noundef ptr @_ZNK4llvh25SmallVectorTemplateCommonIN6hermes3hbc7HBCISel10RelocationEvE10getFirstElEv(ptr noundef nonnull align 8 dereferenceable(16) %this) #0 comdat align 2 {
entry:
  %this.addr = alloca ptr, align 8
  store ptr %this, ptr %this.addr, align 8
  %this1 = load ptr, ptr %this.addr, align 8
  %add.ptr = getelementptr inbounds i8, ptr %this1, i64 16
  ret ptr %add.ptr
}

; Function Attrs: mustprogress nounwind uwtable
define linkonce_odr hidden void @_ZN4llvh25SmallVectorTemplateCommonIN6hermes3hbc7HBCISel10RelocationEvE8grow_podEmm(ptr noundef nonnull align 8 dereferenceable(16) %this, i64 noundef %MinCapacity, i64 noundef %TSize) #0 comdat align 2 {
entry:
  %this.addr = alloca ptr, align 8
  %MinCapacity.addr = alloca i64, align 8
  %TSize.addr = alloca i64, align 8
  store ptr %this, ptr %this.addr, align 8
  store i64 %MinCapacity, ptr %MinCapacity.addr, align 8
  store i64 %TSize, ptr %TSize.addr, align 8
  %this1 = load ptr, ptr %this.addr, align 8
  %call = call noundef ptr @_ZNK4llvh25SmallVectorTemplateCommonIN6hermes3hbc7HBCISel10RelocationEvE10getFirstElEv(ptr noundef nonnull align 8 dereferenceable(16) %this1)
  %0 = load i64, ptr %MinCapacity.addr, align 8
  %1 = load i64, ptr %TSize.addr, align 8
  call void @_ZN4llvh15SmallVectorBase8grow_podEPvmm(ptr noundef nonnull align 8 dereferenceable(16) %this1, ptr noundef %call, i64 noundef %0, i64 noundef %1)
  ret void
}

; Function Attrs: mustprogress nounwind uwtable
define linkonce_odr hidden void @_ZN4llvh15SmallVectorBase8set_sizeEm(ptr noundef nonnull align 8 dereferenceable(16) %this, i64 noundef %Size) #0 comdat align 2 {
entry:
  %this.addr = alloca ptr, align 8
  %Size.addr = alloca i64, align 8
  store ptr %this, ptr %this.addr, align 8
  store i64 %Size, ptr %Size.addr, align 8
  %this1 = load ptr, ptr %this.addr, align 8
  %0 = load i64, ptr %Size.addr, align 8
  %conv = trunc i64 %0 to i32
  %Size2 = getelementptr inbounds %"class.llvh::SmallVectorBase", ptr %this1, i32 0, i32 1
  store i32 %conv, ptr %Size2, align 8
  ret void
}

; Function Attrs: mustprogress nounwind uwtable
define linkonce_odr hidden void @_ZN4llvh23SmallVectorTemplateBaseIN6hermes3hbc7HBCISel10RelocationELb1EE4growEm(ptr noundef nonnull align 8 dereferenceable(16) %this, i64 noundef %MinSize) #0 comdat align 2 {
entry:
  %this.addr = alloca ptr, align 8
  %MinSize.addr = alloca i64, align 8
  store ptr %this, ptr %this.addr, align 8
  store i64 %MinSize, ptr %MinSize.addr, align 8
  %this1 = load ptr, ptr %this.addr, align 8
  %0 = load i64, ptr %MinSize.addr, align 8
  call void @_ZN4llvh25SmallVectorTemplateCommonIN6hermes3hbc7HBCISel10RelocationEvE8grow_podEmm(ptr noundef nonnull align 8 dereferenceable(16) %this1, i64 noundef %0, i64 noundef 16)
  ret void
}

; Function Attrs: mustprogress nounwind uwtable
define linkonce_odr hidden noundef i64 @_ZNK4llvh15SmallVectorBase8capacityEv(ptr noundef nonnull align 8 dereferenceable(16) %this) #0 comdat align 2 {
entry:
  %this.addr = alloca ptr, align 8
  store ptr %this, ptr %this.addr, align 8
  %this1 = load ptr, ptr %this.addr, align 8
  %Capacity = getelementptr inbounds %"class.llvh::SmallVectorBase", ptr %this1, i32 0, i32 2
  %0 = load i32, ptr %Capacity, align 4
  %conv = zext i32 %0 to i64
  ret i64 %conv
}

; Function Attrs: mustprogress nounwind uwtable
define linkonce_odr hidden noundef i64 @_ZNK4llvh15SmallVectorBase4sizeEv(ptr noundef nonnull align 8 dereferenceable(16) %this) #0 comdat align 2 {
entry:
  %this.addr = alloca ptr, align 8
  store ptr %this, ptr %this.addr, align 8
  %this1 = load ptr, ptr %this.addr, align 8
  %Size = getelementptr inbounds %"class.llvh::SmallVectorBase", ptr %this1, i32 0, i32 1
  %0 = load i32, ptr %Size, align 8
  %conv = zext i32 %0 to i64
  ret i64 %conv
}

; Function Attrs: mustprogress nounwind uwtable
define linkonce_odr hidden void @_ZN4llvh23SmallVectorTemplateBaseIN6hermes3hbc7HBCISel10RelocationELb1EE9push_backERKS4_(ptr noundef nonnull align 8 dereferenceable(16) %this, ptr noundef nonnull align 8 dereferenceable(16) %Elt) #0 comdat align 2 {
entry:
  %this.addr.i.i = alloca ptr, align 8
  %this.addr.i = alloca ptr, align 8
  %this.addr = alloca ptr, align 8
  %Elt.addr = alloca ptr, align 8
  store ptr %this, ptr %this.addr, align 8
  store ptr %Elt, ptr %Elt.addr, align 8
  %this1 = load ptr, ptr %this.addr, align 8
  %call = call noundef i64 @_ZNK4llvh15SmallVectorBase4sizeEv(ptr noundef nonnull align 8 dereferenceable(16) %this1)
  %call2 = call noundef i64 @_ZNK4llvh15SmallVectorBase8capacityEv(ptr noundef nonnull align 8 dereferenceable(16) %this1)
  %cmp = icmp uge i64 %call, %call2
  br i1 %cmp, label %if.then, label %if.end

if.then:                                          ; preds = %entry
  call void @_ZN4llvh23SmallVectorTemplateBaseIN6hermes3hbc7HBCISel10RelocationELb1EE4growEm(ptr noundef nonnull align 8 dereferenceable(16) %this1, i64 noundef 0)
  br label %if.end

if.end:                                           ; preds = %if.then, %entry
  store ptr %this1, ptr %this.addr.i, align 8
  %this1.i = load ptr, ptr %this.addr.i, align 8
  store ptr %this1.i, ptr %this.addr.i.i, align 8
  %this1.i.i = load ptr, ptr %this.addr.i.i, align 8
  %0 = load ptr, ptr %this1.i.i, align 8
  %call2.i = call noundef i64 @_ZNK4llvh15SmallVectorBase4sizeEv(ptr noundef nonnull align 8 dereferenceable(16) %this1.i)
  %add.ptr.i = getelementptr inbounds %"struct.hermes::hbc::HBCISel::Relocation", ptr %0, i64 %call2.i
  %1 = load ptr, ptr %Elt.addr, align 8
  call void @llvm.memcpy.p0.p0.i64(ptr align 1 %add.ptr.i, ptr align 8 %1, i64 16, i1 false)
  %call4 = call noundef i64 @_ZNK4llvh15SmallVectorBase4sizeEv(ptr noundef nonnull align 8 dereferenceable(16) %this1)
  %add = add i64 %call4, 1
  call void @_ZN4llvh15SmallVectorBase8set_sizeEm(ptr noundef nonnull align 8 dereferenceable(16) %this1, i64 noundef %add)
  ret void
}

; Function Attrs: mustprogress nounwind uwtable
define hidden void @_ZN6hermes3hbc7HBCISel17registerSwitchImmEjPNS_13SwitchImmInstE(ptr noundef nonnull align 8 dereferenceable(392) %this, i32 noundef %loc, ptr noundef %inst) #0 align 2 {
entry:
  %this.addr = alloca ptr, align 8
  %loc.addr = alloca i32, align 4
  %inst.addr = alloca ptr, align 8
  %ref.tmp = alloca %"struct.hermes::hbc::HBCISel::Relocation", align 8
  store ptr %this, ptr %this.addr, align 8
  store i32 %loc, ptr %loc.addr, align 4
  store ptr %inst, ptr %inst.addr, align 8
  %this1 = load ptr, ptr %this.addr, align 8
  %relocations_ = getelementptr inbounds %"class.hermes::hbc::HBCISel", ptr %this1, i32 0, i32 7
  %loc2 = getelementptr inbounds %"struct.hermes::hbc::HBCISel::Relocation", ptr %ref.tmp, i32 0, i32 0
  %0 = load i32, ptr %loc.addr, align 4
  store i32 %0, ptr %loc2, align 8
  %type = getelementptr inbounds %"struct.hermes::hbc::HBCISel::Relocation", ptr %ref.tmp, i32 0, i32 1
  store i32 6, ptr %type, align 4
  %pointer = getelementptr inbounds %"struct.hermes::hbc::HBCISel::Relocation", ptr %ref.tmp, i32 0, i32 2
  %1 = load ptr, ptr %inst.addr, align 8
  %2 = icmp eq ptr %1, null
  br i1 %2, label %cast.end, label %cast.notnull

cast.notnull:                                     ; preds = %entry
  %add.ptr = getelementptr inbounds i8, ptr %1, i64 16
  br label %cast.end

cast.end:                                         ; preds = %cast.notnull, %entry
  %cast.result = phi ptr [ %add.ptr, %cast.notnull ], [ null, %entry ]
  store ptr %cast.result, ptr %pointer, align 8
  call void @_ZN4llvh23SmallVectorTemplateBaseIN6hermes3hbc7HBCISel10RelocationELb1EE9push_backERKS4_(ptr noundef nonnull align 8 dereferenceable(16) %relocations_, ptr noundef nonnull align 8 dereferenceable(16) %ref.tmp)
  ret void
}